; Function Attrs: mustprogress nofree norecurse nosync nounwind willreturn memory(read, inaccessiblemem: none) uwtable
define noundef i32 @_Z17dd_pme_maxshift_yRK12gmx_domdec_t(ptr noundef nonnull readonly align 8 captures(none) dereferenceable(1072) %0) local_unnamed_addr #13 {
  %2 = getelementptr inbounds nuw i8, ptr %0, i64 912
  %3 = load ptr, ptr %2, align 8, !tbaa !8
  %4 = getelementptr inbounds nuw i8, ptr %3, i64 72
  %5 = load i32, ptr %4, align 8, !tbaa !338
  %6 = icmp eq i32 %5, 1
  br i1 %6, label %.sink.split, label %7

7:                                                ; preds = %1
  %8 = getelementptr inbounds nuw i8, ptr %3, i64 56
  %9 = load i32, ptr %8, align 8, !tbaa !341
  %10 = icmp sgt i32 %9, 1
  br i1 %10, label %11, label %17

11:                                               ; preds = %7
  %12 = getelementptr inbounds nuw i8, ptr %3, i64 168
  %13 = load i32, ptr %12, align 8, !tbaa !338
  %14 = icmp eq i32 %13, 1
  br i1 %14, label %.sink.split, label %17

.sink.split:                                      ; preds = %11, %1
  %.sink6 = phi i64 [ 160, %1 ], [ 256, %11 ]
  %15 = getelementptr inbounds nuw i8, ptr %3, i64 %.sink6
  %16 = load i32, ptr %15, align 8, !tbaa !340
  br label %17

17:                                               ; preds = %.sink.split, %7, %11
  %.0 = phi i32 [ 0, %11 ], [ 0, %7 ], [ %16, %.sink.split ]
  ret i32 %.0
}